
mips16-elf.x:     file format elf32-bigmips


Disassembly of section .text:

80000000 <_start>:
80000000:	b214      	lw	v0,80000050 <_stack_addr>
80000002:	65ba      	move	sp,v0
80000004:	b214      	lw	v0,80000054 <_gp_addr>
80000006:	1800 0049 	jal	80000124 <main>
8000000a:	659a      	move	gp,v0
8000000c:	6500      	nop
8000000e:	6782      	move	a0,v0

80000010 <__exit>:
80000010:	03ff000d 	break	0x3ff
80000014:	e8206500 	swc2	$0,25856(at)
80000018:	65006500 	0x65006500

8000001c <__read>:
8000001c:	00000385 	0x385
80000020:	e8206500 	swc2	$0,25856(at)
80000024:	65006500 	0x65006500

80000028 <__write>:
80000028:	00000405 	0x405
8000002c:	e8206500 	swc2	$0,25856(at)
80000030:	65006500 	0x65006500

80000034 <__open>:
80000034:	00000305 	0x305
80000038:	e8206500 	swc2	$0,25856(at)
8000003c:	65006500 	0x65006500

80000040 <__close>:
80000040:	00000505 	0x505
80000044:	e8206500 	swc2	$0,25856(at)
80000048:	65006500 	0x65006500
8000004c:	65006500 	0x65006500

80000050 <_stack_addr>:
80000050:	80000810 	lb	zero,2064(zero)

80000054 <_gp_addr>:
80000054:	80000400 	lb	zero,1024(zero)
80000058:	65006500 	0x65006500
8000005c:	65006500 	0x65006500

80000060 <exit>:
80000060:	63fd      	addiu	sp,-24
80000062:	6204      	sw	ra,16(sp)
80000064:	1c00 0004 	jalx	80000010 <__exit>
80000068:	6500      	nop
8000006a:	6500      	nop

8000006c <write1>:
8000006c:	63fd      	addiu	sp,-24
8000006e:	6204      	sw	ra,16(sp)
80000070:	675d      	move	v0,sp
80000072:	c2bc      	sb	a1,28(v0)
80000074:	67bd      	move	a1,sp
80000076:	4d1c      	addiu	a1,28
80000078:	1c00 000a 	jalx	80000028 <__write>
8000007c:	6e01      	li	a2,1
8000007e:	9704      	lw	a3,16(sp)
80000080:	ef00      	jr	a3
80000082:	6303      	addiu	sp,24

80000084 <putchar>:
80000084:	63fd      	addiu	sp,-24
80000086:	6205      	sw	ra,20(sp)
80000088:	d004      	sw	s0,16(sp)
8000008a:	6705      	move	s0,a1
8000008c:	6aff      	li	v0,255
8000008e:	1800 001b 	jal	8000006c <write1>
80000092:	ed4c      	and	a1,v0
80000094:	6750      	move	v0,s0
80000096:	9705      	lw	a3,20(sp)
80000098:	9004      	lw	s0,16(sp)
8000009a:	ef00      	jr	a3
8000009c:	6303      	addiu	sp,24
8000009e:	6500      	nop

800000a0 <puts>:
800000a0:	63fc      	addiu	sp,-32
800000a2:	6206      	sw	ra,24(sp)
800000a4:	d105      	sw	s1,20(sp)
800000a6:	d004      	sw	s0,16(sp)
800000a8:	6724      	move	s1,a0
800000aa:	6705      	move	s0,a1
800000ac:	8540      	lb	v0,0(a1)
800000ae:	2207      	beqz	v0,800000be <puts+0x1e>
800000b0:	6791      	move	a0,s1
800000b2:	1800 0021 	jal	80000084 <putchar>
800000b6:	80a0      	lb	a1,0(s0)
800000b8:	4801      	addiu	s0,1
800000ba:	8040      	lb	v0,0(s0)
800000bc:	2af9      	bnez	v0,800000b0 <puts+0x10>
800000be:	6a00      	li	v0,0
800000c0:	9706      	lw	a3,24(sp)
800000c2:	9105      	lw	s1,20(sp)
800000c4:	9004      	lw	s0,16(sp)
800000c6:	ef00      	jr	a3
800000c8:	6304      	addiu	sp,32
800000ca:	6500      	nop

800000cc <putxval>:
800000cc:	63fa      	addiu	sp,-48
800000ce:	620a      	sw	ra,40(sp)
800000d0:	651c      	move	t8,a0
800000d2:	6a00      	li	v0,0
800000d4:	677d      	move	v1,sp
800000d6:	f020 c340 	sb	v0,32(v1)
800000da:	4b1f      	addiu	v1,31
800000dc:	2d04      	bnez	a1,800000e6 <putxval+0x1a>
800000de:	2e01      	bnez	a2,800000e2 <putxval+0x16>
800000e0:	6e01      	li	a2,1
800000e2:	2d01      	bnez	a1,800000e6 <putxval+0x1a>
800000e4:	260d      	beqz	a2,80000100 <putxval+0x34>
800000e6:	0c0b      	la	a0,80000110 <putxval+0x44>
800000e8:	6f0f      	li	a3,15
800000ea:	6745      	move	v0,a1
800000ec:	eaec      	and	v0,a3
800000ee:	e289      	addu	v0,a0
800000f0:	a240      	lbu	v0,0(v0)
800000f2:	c340      	sb	v0,0(v1)
800000f4:	4bff      	addiu	v1,-1
800000f6:	35b2      	srl	a1,4
800000f8:	2601      	beqz	a2,800000fc <putxval+0x30>
800000fa:	4eff      	addiu	a2,-1
800000fc:	2df6      	bnez	a1,800000ea <putxval+0x1e>
800000fe:	2ef5      	bnez	a2,800000ea <putxval+0x1e>
80000100:	6798      	move	a0,t8
80000102:	1800 0028 	jal	800000a0 <puts>
80000106:	43a1      	addiu	a1,v1,1
80000108:	6a00      	li	v0,0
8000010a:	970a      	lw	a3,40(sp)
8000010c:	ef00      	jr	a3
8000010e:	6306      	addiu	sp,48
80000110:	3031      	dsll	s0,s1,4
80000112:	3233      	sra	v0,s1,4
80000114:	3435      	dsll	a0,s1,5
80000116:	3637      	sra	a2,s1,5
80000118:	3839      	ld	s1,200(s0)
8000011a:	6162      	btnez	800001e0 <_etext+0x50>
8000011c:	6364      	addiu	sp,800
8000011e:	6566      	move	v1,a2
80000120:	0000      	addiu	s0,sp,0
80000122:	6500      	nop

80000124 <main>:
80000124:	63fd      	addiu	sp,-24
80000126:	6205      	sw	ra,20(sp)
80000128:	d004      	sw	s0,16(sp)
8000012a:	6801      	li	s0,1
8000012c:	0d0c      	la	a1,8000015c <main+0x38>
8000012e:	1800 0028 	jal	800000a0 <puts>
80000132:	6790      	move	a0,s0
80000134:	6790      	move	a0,s0
80000136:	675c      	move	v0,gp
80000138:	f000 9aa0 	lw	a1,0(v0)
8000013c:	1800 0033 	jal	800000cc <putxval>
80000140:	6e00      	li	a2,0
80000142:	0d0b      	la	a1,8000016c <main+0x48>
80000144:	1800 0028 	jal	800000a0 <puts>
80000148:	6790      	move	a0,s0
8000014a:	1800 0018 	jal	80000060 <exit>
8000014e:	6c00      	li	a0,0
80000150:	6a00      	li	v0,0
80000152:	9705      	lw	a3,20(sp)
80000154:	9004      	lw	s0,16(sp)
80000156:	ef00      	jr	a3
80000158:	6303      	addiu	sp,24
8000015a:	6500      	nop
8000015c:	4865      	addiu	s0,101
8000015e:	6c6c      	li	a0,108
80000160:	6f20      	li	a3,32
80000162:	576f      	slti	a3,111
80000164:	726c      	cmpi	v0,108
80000166:	6421      	restore	8,s0
80000168:	2000      	beqz	s0,8000016a <main+0x46>
8000016a:	6500      	nop
8000016c:	2054      	beqz	s0,80000216 <_etext+0x86>
8000016e:	6869      	li	s0,105
80000170:	7320      	cmpi	v1,32
80000172:	6172      	btnez	80000258 <_etext+0xc8>
80000174:	6368      	addiu	sp,832
80000176:	6974      	li	s1,116
80000178:	6563      	move	v1,v1
8000017a:	7475      	cmpi	a0,117
8000017c:	7265      	cmpi	v0,101
8000017e:	2069      	beqz	s0,80000252 <_etext+0xc2>
80000180:	7320      	cmpi	v1,32
80000182:	6d69      	li	a1,105
80000184:	7073      	cmpi	s0,115
80000186:	3136      	srl	s1,5
80000188:	2d65      	bnez	a1,80000254 <_etext+0xc4>
8000018a:	6c66      	li	a0,102
8000018c:	0a00      	la	v0,8000018c <main+0x68>
8000018e:	6500      	nop
